target datalayout = "e-m:e-p270:32:32-p271:32:32-p272:64:64-i64:64-i128:128-f80:128-n8:16:32:64-S128"
target triple = "x86_64-pc-linux-gnu"

@H5O_init_g = external global i8, align 1
@H5_libterm_g = external global i8, align 1

; Function Attrs: nounwind uwtable
define internal i64 @H5O__shmesg_size(ptr noundef %0, i1 noundef zeroext %1, ptr noundef %2) #0 {
  %4 = alloca ptr, align 8
  %5 = alloca i8, align 1
  %6 = alloca ptr, align 8
  %7 = alloca i64, align 8
  store ptr %0, ptr %4, align 8, !tbaa !3
  %8 = zext i1 %1 to i8
  store i8 %8, ptr %5, align 1, !tbaa !19
  store ptr %2, ptr %6, align 8, !tbaa !18
  call void @llvm.lifetime.start.p0(i64 8, ptr %7) #8
  store i64 0, ptr %7, align 8, !tbaa !14
  %9 = load i8, ptr @H5O_init_g, align 1, !tbaa !19, !range !21, !noundef !22
  %10 = trunc i8 %9 to i1
  br i1 %10, label %15, label %11

11:                                               ; preds = %3
  %12 = load i8, ptr @H5_libterm_g, align 1, !tbaa !19, !range !21, !noundef !22
  %13 = trunc i8 %12 to i1
  %14 = xor i1 %13, true
  br label %15

15:                                               ; preds = %11, %3
  %16 = phi i1 [ true, %3 ], [ %14, %11 ]
  %17 = xor i1 %16, true
  %18 = xor i1 %17, true
  %19 = zext i1 %18 to i32
  %20 = sext i32 %19 to i64
  %21 = call i64 @llvm.expect.i64(i64 %20, i64 1)
  %22 = icmp ne i64 %21, 0
  br i1 %22, label %23, label %30

23:                                               ; preds = %15
  %24 = load ptr, ptr %4, align 8, !tbaa !3
  %25 = call zeroext i8 @H5F_sizeof_addr(ptr noundef %24)
  %26 = zext i8 %25 to i32
  %27 = add nsw i32 1, %26
  %28 = add nsw i32 %27, 1
  %29 = sext i32 %28 to i64
  store i64 %29, ptr %7, align 8, !tbaa !14
  br label %30

30:                                               ; preds = %23, %15
  %31 = load i64, ptr %7, align 8, !tbaa !14
  call void @llvm.lifetime.end.p0(i64 8, ptr %7) #8
  ret i64 %31
}