; Function Attrs: nounwind uwtable
define internal range(i64 0, 258) i64 @H5O__shmesg_size(ptr noundef %0, i1 zeroext %1, ptr readnone captures(none) %2) #0 {
  %4 = load i8, ptr @H5O_init_g, align 1, !tbaa !8, !range !10, !noundef !11
  %5 = trunc nuw i8 %4 to i1
  %6 = load i8, ptr @H5_libterm_g, align 1, !range !10
  %7 = trunc nuw i8 %6 to i1
  %8 = xor i1 %7, true
  %9 = select i1 %5, i1 true, i1 %8
  br i1 %9, label %10, label %14, !prof !12

10:                                               ; preds = %3
  %11 = tail call zeroext i8 @H5F_sizeof_addr(ptr noundef %0) #8
  %12 = zext i8 %11 to i64
  %13 = add nuw nsw i64 %12, 2
  br label %14

14:                                               ; preds = %10, %3
  %.0 = phi i64 [ %13, %10 ], [ 0, %3 ]
  ret i64 %.0
}